target datalayout = "e-m:e-p270:32:32-p271:32:32-p272:64:64-i64:64-i128:128-f80:128-n8:16:32:64-S128"
target triple = "x86_64-pc-linux-gnu"

%"struct.std::pair" = type <{ %"struct.std::__detail::_Node_iterator", i8, [7 x i8] }>
%"struct.std::__detail::_Node_iterator" = type { %"struct.std::__detail::_Node_iterator_base" }
%"struct.std::__detail::_Node_iterator_base" = type { ptr }
%"class.rocksdb::PointLockTracker" = type { %"class.rocksdb::LockTracker", %"class.std::unordered_map" }
%"class.rocksdb::LockTracker" = type { ptr }
%"class.std::unordered_map" = type { %"class.std::_Hashtable" }
%"class.std::_Hashtable" = type { ptr, i64, %"struct.std::__detail::_Hash_node_base", i64, %"struct.std::__detail::_Prime_rehash_policy", ptr }
%"struct.std::__detail::_Hash_node_base" = type { ptr }
%"struct.std::__detail::_Prime_rehash_policy" = type { float, i64 }
%"struct.rocksdb::PointLockRequest" = type <{ i32, [4 x i8], %"class.std::__cxx11::basic_string", i64, i8, i8, [6 x i8] }>
%"class.std::__cxx11::basic_string" = type { %"struct.std::__cxx11::basic_string<char>::_Alloc_hider", i64, %union.anon }
%"struct.std::__cxx11::basic_string<char>::_Alloc_hider" = type { ptr }
%union.anon = type { i64, [8 x i8] }
%"struct.std::pair.25" = type { %"class.std::__cxx11::basic_string", %"struct.rocksdb::TrackedKeyInfo" }
%"struct.rocksdb::TrackedKeyInfo" = type <{ i64, i32, i32, i8, [7 x i8] }>
%"struct.std::__detail::_Node_const_iterator.34" = type { %"struct.std::__detail::_Node_iterator_base" }
%"class.std::unordered_map.5" = type { %"class.std::_Hashtable.6" }
%"class.std::_Hashtable.6" = type { ptr, i64, %"struct.std::__detail::_Hash_node_base", i64, %"struct.std::__detail::_Prime_rehash_policy", ptr }
%"struct.std::__detail::_Hash_node_value_base.37" = type { %"struct.__gnu_cxx::__aligned_buffer.38" }
%"struct.__gnu_cxx::__aligned_buffer.38" = type { %"union.std::aligned_storage<56, 8>::type" }
%"union.std::aligned_storage<56, 8>::type" = type { [56 x i8] }

; Function Attrs: mustprogress nounwind uwtable
define linkonce_odr void @_ZNSt8__detail19_Node_iterator_baseISt4pairIKNSt7__cxx1112basic_stringIcSt11char_traitsIcESaIcEEEN7rocksdb14TrackedKeyInfoEELb1EEC2EPNS_10_Hash_nodeISB_Lb1EEE(ptr noundef nonnull align 8 dereferenceable(8) %0, ptr noundef %1) unnamed_addr #3 comdat align 2 {
  %3 = alloca ptr, align 8
  %4 = alloca ptr, align 8
  store ptr %0, ptr %3, align 8, !tbaa !59
  store ptr %1, ptr %4, align 8, !tbaa !154
  %5 = load ptr, ptr %3, align 8
  %6 = getelementptr inbounds nuw %"struct.std::__detail::_Node_iterator_base", ptr %5, i32 0, i32 0
  %7 = load ptr, ptr %4, align 8, !tbaa !154
  store ptr %7, ptr %6, align 8, !tbaa !46
  ret void
}

; Function Attrs: mustprogress nounwind uwtable
define linkonce_odr noundef ptr @_ZN9__gnu_cxx16__aligned_bufferISt4pairIKNSt7__cxx1112basic_stringIcSt11char_traitsIcESaIcEEEN7rocksdb14TrackedKeyInfoEEE7_M_addrEv(ptr noundef nonnull align 8 dereferenceable(56) %0) #3 comdat align 2 {
  %2 = alloca ptr, align 8
  store ptr %0, ptr %2, align 8, !tbaa !177
  %3 = load ptr, ptr %2, align 8
  %4 = getelementptr inbounds nuw %"struct.__gnu_cxx::__aligned_buffer.38", ptr %3, i32 0, i32 0
  ret ptr %4
}

; Function Attrs: mustprogress nounwind uwtable
define linkonce_odr void @_ZNSt8__detail20_Node_const_iteratorISt4pairIKNSt7__cxx1112basic_stringIcSt11char_traitsIcESaIcEEEN7rocksdb14TrackedKeyInfoEELb0ELb1EEC2EPNS_10_Hash_nodeISB_Lb1EEE(ptr noundef nonnull align 8 dereferenceable(8) %0, ptr noundef %1) unnamed_addr #3 comdat align 2 {
  %3 = alloca ptr, align 8
  %4 = alloca ptr, align 8
  store ptr %0, ptr %3, align 8, !tbaa !80
  store ptr %1, ptr %4, align 8, !tbaa !154
  %5 = load ptr, ptr %3, align 8
  %6 = load ptr, ptr %4, align 8, !tbaa !154
  call void @_ZNSt8__detail19_Node_iterator_baseISt4pairIKNSt7__cxx1112basic_stringIcSt11char_traitsIcESaIcEEEN7rocksdb14TrackedKeyInfoEELb1EEC2EPNS_10_Hash_nodeISB_Lb1EEE(ptr noundef nonnull align 8 dereferenceable(8) %5, ptr noundef %6) #16
  ret void
}

; Function Attrs: mustprogress nounwind uwtable
define linkonce_odr noundef ptr @_ZN9__gnu_cxx16__aligned_bufferISt4pairIKNSt7__cxx1112basic_stringIcSt11char_traitsIcESaIcEEEN7rocksdb14TrackedKeyInfoEEE6_M_ptrEv(ptr noundef nonnull align 8 dereferenceable(56) %0) #3 comdat align 2 {
  %2 = alloca ptr, align 8
  store ptr %0, ptr %2, align 8, !tbaa !177
  %3 = load ptr, ptr %2, align 8
  %4 = call noundef ptr @_ZN9__gnu_cxx16__aligned_bufferISt4pairIKNSt7__cxx1112basic_stringIcSt11char_traitsIcESaIcEEEN7rocksdb14TrackedKeyInfoEEE7_M_addrEv(ptr noundef nonnull align 8 dereferenceable(56) %3) #16
  ret ptr %4
}

; Function Attrs: mustprogress nounwind uwtable
define linkonce_odr ptr @_ZNKSt10_HashtableINSt7__cxx1112basic_stringIcSt11char_traitsIcESaIcEEESt4pairIKS5_N7rocksdb14TrackedKeyInfoEESaISA_ENSt8__detail10_Select1stESt8equal_toIS5_ESt4hashIS5_ENSC_18_Mod_range_hashingENSC_20_Default_ranged_hashENSC_20_Prime_rehash_policyENSC_17_Hashtable_traitsILb1ELb0ELb1EEEE3endEv(ptr noundef nonnull align 8 dereferenceable(56) %0) #3 comdat align 2 {
  %2 = alloca %"struct.std::__detail::_Node_const_iterator.34", align 8
  %3 = alloca ptr, align 8
  store ptr %0, ptr %3, align 8, !tbaa !160
  call void @_ZNSt8__detail20_Node_const_iteratorISt4pairIKNSt7__cxx1112basic_stringIcSt11char_traitsIcESaIcEEEN7rocksdb14TrackedKeyInfoEELb0ELb1EEC2EPNS_10_Hash_nodeISB_Lb1EEE(ptr noundef nonnull align 8 dereferenceable(8) %2, ptr noundef null) #16
  %4 = getelementptr inbounds nuw %"struct.std::__detail::_Node_const_iterator.34", ptr %2, i32 0, i32 0
  %5 = getelementptr inbounds nuw %"struct.std::__detail::_Node_iterator_base", ptr %4, i32 0, i32 0
  %6 = load ptr, ptr %5, align 8
  ret ptr %6
}

; Function Attrs: mustprogress nounwind uwtable
define linkonce_odr noundef ptr @_ZNSt8__detail21_Hash_node_value_baseISt4pairIKNSt7__cxx1112basic_stringIcSt11char_traitsIcESaIcEEEN7rocksdb14TrackedKeyInfoEEE9_M_valptrEv(ptr noundef nonnull align 8 dereferenceable(56) %0) #3 comdat align 2 {
  %2 = alloca ptr, align 8
  store ptr %0, ptr %2, align 8, !tbaa !171
  %3 = load ptr, ptr %2, align 8
  %4 = getelementptr inbounds nuw %"struct.std::__detail::_Hash_node_value_base.37", ptr %3, i32 0, i32 0
  %5 = call noundef ptr @_ZN9__gnu_cxx16__aligned_bufferISt4pairIKNSt7__cxx1112basic_stringIcSt11char_traitsIcESaIcEEEN7rocksdb14TrackedKeyInfoEEE6_M_ptrEv(ptr noundef nonnull align 8 dereferenceable(56) %4) #16
  ret ptr %5
}

; Function Attrs: mustprogress nounwind uwtable
define linkonce_odr ptr @_ZNKSt13unordered_mapINSt7__cxx1112basic_stringIcSt11char_traitsIcESaIcEEEN7rocksdb14TrackedKeyInfoESt4hashIS5_ESt8equal_toIS5_ESaISt4pairIKS5_S7_EEE4cendEv(ptr noundef nonnull align 8 dereferenceable(56) %0) #3 comdat align 2 {
  %2 = alloca %"struct.std::__detail::_Node_const_iterator.34", align 8
  %3 = alloca ptr, align 8
  store ptr %0, ptr %3, align 8, !tbaa !11
  %4 = load ptr, ptr %3, align 8
  %5 = getelementptr inbounds nuw %"class.std::unordered_map.5", ptr %4, i32 0, i32 0
  %6 = call ptr @_ZNKSt10_HashtableINSt7__cxx1112basic_stringIcSt11char_traitsIcESaIcEEESt4pairIKS5_N7rocksdb14TrackedKeyInfoEESaISA_ENSt8__detail10_Select1stESt8equal_toIS5_ESt4hashIS5_ENSC_18_Mod_range_hashingENSC_20_Default_ranged_hashENSC_20_Prime_rehash_policyENSC_17_Hashtable_traitsILb1ELb0ELb1EEEE3endEv(ptr noundef nonnull align 8 dereferenceable(56) %5) #16
  %7 = getelementptr inbounds nuw %"struct.std::__detail::_Node_const_iterator.34", ptr %2, i32 0, i32 0
  %8 = getelementptr inbounds nuw %"struct.std::__detail::_Node_iterator_base", ptr %7, i32 0, i32 0
  store ptr %6, ptr %8, align 8
  %9 = getelementptr inbounds nuw %"struct.std::__detail::_Node_const_iterator.34", ptr %2, i32 0, i32 0
  %10 = getelementptr inbounds nuw %"struct.std::__detail::_Node_iterator_base", ptr %9, i32 0, i32 0
  %11 = load ptr, ptr %10, align 8
  ret ptr %11
}

; Function Attrs: mustprogress nounwind uwtable
define linkonce_odr noundef ptr @_ZNKSt8__detail14_Node_iteratorISt4pairIKNSt7__cxx1112basic_stringIcSt11char_traitsIcESaIcEEEN7rocksdb14TrackedKeyInfoEELb0ELb1EEptEv(ptr noundef nonnull align 8 dereferenceable(8) %0) #3 comdat align 2 {
  %2 = alloca ptr, align 8
  store ptr %0, ptr %2, align 8, !tbaa !44
  %3 = load ptr, ptr %2, align 8
  %4 = getelementptr inbounds nuw %"struct.std::__detail::_Node_iterator_base", ptr %3, i32 0, i32 0
  %5 = load ptr, ptr %4, align 8, !tbaa !46
  %6 = getelementptr inbounds i8, ptr %5, i64 8
  %7 = call noundef ptr @_ZNSt8__detail21_Hash_node_value_baseISt4pairIKNSt7__cxx1112basic_stringIcSt11char_traitsIcESaIcEEEN7rocksdb14TrackedKeyInfoEEE9_M_valptrEv(ptr noundef nonnull align 8 dereferenceable(56) %6) #16
  ret ptr %7
}

; Function Attrs: mustprogress uwtable
define linkonce_odr { ptr, i8 } @_ZNSt13unordered_mapINSt7__cxx1112basic_stringIcSt11char_traitsIcESaIcEEEN7rocksdb14TrackedKeyInfoESt4hashIS5_ESt8equal_toIS5_ESaISt4pairIKS5_S7_EEE11try_emplaceIJRKmEEESC_INSt8__detail14_Node_iteratorISE_Lb0ELb1EEEbERSD_DpOT_(ptr noundef nonnull align 8 dereferenceable(56) %0, ptr noundef nonnull align 8 dereferenceable(32) %1, ptr noundef nonnull align 8 dereferenceable(8) %2) #0 comdat align 2 {
  %4 = alloca %"struct.std::pair", align 8
  %5 = alloca ptr, align 8
  %6 = alloca ptr, align 8
  %7 = alloca ptr, align 8
  %8 = alloca %"struct.std::__detail::_Node_const_iterator.34", align 8
  %9 = alloca { ptr, i8 }, align 8
  store ptr %0, ptr %5, align 8, !tbaa !11
  store ptr %1, ptr %6, align 8, !tbaa !40
  store ptr %2, ptr %7, align 8, !tbaa !42
  %10 = load ptr, ptr %5, align 8
  %11 = getelementptr inbounds nuw %"class.std::unordered_map.5", ptr %10, i32 0, i32 0
  %12 = call ptr @_ZNKSt13unordered_mapINSt7__cxx1112basic_stringIcSt11char_traitsIcESaIcEEEN7rocksdb14TrackedKeyInfoESt4hashIS5_ESt8equal_toIS5_ESaISt4pairIKS5_S7_EEE4cendEv(ptr noundef nonnull align 8 dereferenceable(56) %10) #16
  %13 = getelementptr inbounds nuw %"struct.std::__detail::_Node_const_iterator.34", ptr %8, i32 0, i32 0
  %14 = getelementptr inbounds nuw %"struct.std::__detail::_Node_iterator_base", ptr %13, i32 0, i32 0
  store ptr %12, ptr %14, align 8
  %15 = load ptr, ptr %6, align 8, !tbaa !40
  %16 = load ptr, ptr %7, align 8, !tbaa !42
  %17 = getelementptr inbounds nuw %"struct.std::__detail::_Node_const_iterator.34", ptr %8, i32 0, i32 0
  %18 = getelementptr inbounds nuw %"struct.std::__detail::_Node_iterator_base", ptr %17, i32 0, i32 0
  %19 = load ptr, ptr %18, align 8
  %20 = call { ptr, i8 } @_ZNSt8__detail12_Insert_baseINSt7__cxx1112basic_stringIcSt11char_traitsIcESaIcEEESt4pairIKS6_N7rocksdb14TrackedKeyInfoEESaISB_ENS_10_Select1stESt8equal_toIS6_ESt4hashIS6_ENS_18_Mod_range_hashingENS_20_Default_ranged_hashENS_20_Prime_rehash_policyENS_17_Hashtable_traitsILb1ELb0ELb1EEEE11try_emplaceIRS8_JRKmEEES7_INS_14_Node_iteratorISB_Lb0ELb1EEEbENS_20_Node_const_iteratorISB_Lb0ELb1EEEOT_DpOT0_(ptr noundef nonnull align 1 dereferenceable(1) %11, ptr %19, ptr noundef nonnull align 8 dereferenceable(32) %15, ptr noundef nonnull align 8 dereferenceable(8) %16)
  store { ptr, i8 } %20, ptr %9, align 8
  call void @llvm.memcpy.p0.p0.i64(ptr align 8 %4, ptr align 8 %9, i64 9, i1 false)
  %21 = load { ptr, i8 }, ptr %4, align 8
  ret { ptr, i8 } %21
}

; Function Attrs: mustprogress uwtable
define linkonce_odr noundef nonnull align 8 dereferenceable(56) ptr @_ZNSt13unordered_mapIjS_INSt7__cxx1112basic_stringIcSt11char_traitsIcESaIcEEEN7rocksdb14TrackedKeyInfoESt4hashIS5_ESt8equal_toIS5_ESaISt4pairIKS5_S7_EEES8_IjESA_IjESaISC_IKjSG_EEEixERSJ_(ptr noundef nonnull align 8 dereferenceable(56) %0, ptr noundef nonnull align 4 dereferenceable(4) %1) #0 comdat align 2 {
  %3 = alloca ptr, align 8
  %4 = alloca ptr, align 8
  store ptr %0, ptr %3, align 8, !tbaa !36
  store ptr %1, ptr %4, align 8, !tbaa !38
  %5 = load ptr, ptr %3, align 8
  %6 = getelementptr inbounds nuw %"class.std::unordered_map", ptr %5, i32 0, i32 0
  %7 = load ptr, ptr %4, align 8, !tbaa !38
  %8 = call noundef nonnull align 8 dereferenceable(56) ptr @_ZNSt8__detail9_Map_baseIjSt4pairIKjSt13unordered_mapINSt7__cxx1112basic_stringIcSt11char_traitsIcESaIcEEEN7rocksdb14TrackedKeyInfoESt4hashIS9_ESt8equal_toIS9_ESaIS1_IKS9_SB_EEEESaISK_ENS_10_Select1stESE_IjESC_IjENS_18_Mod_range_hashingENS_20_Default_ranged_hashENS_20_Prime_rehash_policyENS_17_Hashtable_traitsILb0ELb0ELb1EEELb1EEixERS2_(ptr noundef nonnull align 1 dereferenceable(1) %6, ptr noundef nonnull align 4 dereferenceable(4) %7)
  ret ptr %8
}

; Function Attrs: mustprogress uwtable
define void @_ZN7rocksdb16PointLockTracker5TrackERKNS_16PointLockRequestE(ptr noundef nonnull align 8 dereferenceable(64) %0, ptr noundef nonnull align 8 dereferenceable(50) %1) unnamed_addr #0 align 2 {
  %3 = alloca ptr, align 8
  %4 = alloca ptr, align 8
  %5 = alloca ptr, align 8
  %6 = alloca %"struct.std::pair", align 8
  %7 = alloca { ptr, i8 }, align 8
  %8 = alloca %"struct.std::__detail::_Node_iterator", align 8
  store ptr %0, ptr %3, align 8, !tbaa !4
  store ptr %1, ptr %4, align 8, !tbaa !9
  %9 = load ptr, ptr %3, align 8
  call void @llvm.lifetime.start.p0(i64 8, ptr %5) #16
  %10 = getelementptr inbounds nuw %"class.rocksdb::PointLockTracker", ptr %9, i32 0, i32 1
  %11 = load ptr, ptr %4, align 8, !tbaa !9
  %12 = getelementptr inbounds nuw %"struct.rocksdb::PointLockRequest", ptr %11, i32 0, i32 0
  %13 = call noundef nonnull align 8 dereferenceable(56) ptr @_ZNSt13unordered_mapIjS_INSt7__cxx1112basic_stringIcSt11char_traitsIcESaIcEEEN7rocksdb14TrackedKeyInfoESt4hashIS5_ESt8equal_toIS5_ESaISt4pairIKS5_S7_EEES8_IjESA_IjESaISC_IKjSG_EEEixERSJ_(ptr noundef nonnull align 8 dereferenceable(56) %10, ptr noundef nonnull align 4 dereferenceable(4) %12)
  store ptr %13, ptr %5, align 8, !tbaa !11
  call void @llvm.lifetime.start.p0(i64 16, ptr %6) #16
  %14 = load ptr, ptr %5, align 8, !tbaa !11
  %15 = load ptr, ptr %4, align 8, !tbaa !9
  %16 = getelementptr inbounds nuw %"struct.rocksdb::PointLockRequest", ptr %15, i32 0, i32 2
  %17 = load ptr, ptr %4, align 8, !tbaa !9
  %18 = getelementptr inbounds nuw %"struct.rocksdb::PointLockRequest", ptr %17, i32 0, i32 3
  %19 = call { ptr, i8 } @_ZNSt13unordered_mapINSt7__cxx1112basic_stringIcSt11char_traitsIcESaIcEEEN7rocksdb14TrackedKeyInfoESt4hashIS5_ESt8equal_toIS5_ESaISt4pairIKS5_S7_EEE11try_emplaceIJRKmEEESC_INSt8__detail14_Node_iteratorISE_Lb0ELb1EEEbERSD_DpOT_(ptr noundef nonnull align 8 dereferenceable(56) %14, ptr noundef nonnull align 8 dereferenceable(32) %16, ptr noundef nonnull align 8 dereferenceable(8) %18)
  store { ptr, i8 } %19, ptr %7, align 8
  call void @llvm.memcpy.p0.p0.i64(ptr align 8 %6, ptr align 8 %7, i64 9, i1 false)
  call void @llvm.lifetime.start.p0(i64 8, ptr %8) #16
  %20 = getelementptr inbounds nuw %"struct.std::pair", ptr %6, i32 0, i32 0
  call void @llvm.memcpy.p0.p0.i64(ptr align 8 %8, ptr align 8 %20, i64 8, i1 false)
  %21 = getelementptr inbounds nuw %"struct.std::pair", ptr %6, i32 0, i32 1
  %22 = load i8, ptr %21, align 8, !tbaa !13, !range !19, !noundef !20
  %23 = trunc i8 %22 to i1
  br i1 %23, label %40, label %24

24:                                               ; preds = %2
  %25 = load ptr, ptr %4, align 8, !tbaa !9
  %26 = getelementptr inbounds nuw %"struct.rocksdb::PointLockRequest", ptr %25, i32 0, i32 3
  %27 = load i64, ptr %26, align 8, !tbaa !21
  %28 = call noundef ptr @_ZNKSt8__detail14_Node_iteratorISt4pairIKNSt7__cxx1112basic_stringIcSt11char_traitsIcESaIcEEEN7rocksdb14TrackedKeyInfoEELb0ELb1EEptEv(ptr noundef nonnull align 8 dereferenceable(8) %8) #16
  %29 = getelementptr inbounds nuw %"struct.std::pair.25", ptr %28, i32 0, i32 1
  %30 = getelementptr inbounds nuw %"struct.rocksdb::TrackedKeyInfo", ptr %29, i32 0, i32 0
  %31 = load i64, ptr %30, align 8, !tbaa !28
  %32 = icmp ult i64 %27, %31
  br i1 %32, label %33, label %40

33:                                               ; preds = %24
  %34 = load ptr, ptr %4, align 8, !tbaa !9
  %35 = getelementptr inbounds nuw %"struct.rocksdb::PointLockRequest", ptr %34, i32 0, i32 3
  %36 = load i64, ptr %35, align 8, !tbaa !21
  %37 = call noundef ptr @_ZNKSt8__detail14_Node_iteratorISt4pairIKNSt7__cxx1112basic_stringIcSt11char_traitsIcESaIcEEEN7rocksdb14TrackedKeyInfoEELb0ELb1EEptEv(ptr noundef nonnull align 8 dereferenceable(8) %8) #16
  %38 = getelementptr inbounds nuw %"struct.std::pair.25", ptr %37, i32 0, i32 1
  %39 = getelementptr inbounds nuw %"struct.rocksdb::TrackedKeyInfo", ptr %38, i32 0, i32 0
  store i64 %36, ptr %39, align 8, !tbaa !28
  br label %40

40:                                               ; preds = %33, %24, %2
  %41 = load ptr, ptr %4, align 8, !tbaa !9
  %42 = getelementptr inbounds nuw %"struct.rocksdb::PointLockRequest", ptr %41, i32 0, i32 4
  %43 = load i8, ptr %42, align 8, !tbaa !31, !range !19, !noundef !20
  %44 = trunc i8 %43 to i1
  br i1 %44, label %45, label %51

45:                                               ; preds = %40
  %46 = call noundef ptr @_ZNKSt8__detail14_Node_iteratorISt4pairIKNSt7__cxx1112basic_stringIcSt11char_traitsIcESaIcEEEN7rocksdb14TrackedKeyInfoEELb0ELb1EEptEv(ptr noundef nonnull align 8 dereferenceable(8) %8) #16
  %47 = getelementptr inbounds nuw %"struct.std::pair.25", ptr %46, i32 0, i32 1
  %48 = getelementptr inbounds nuw %"struct.rocksdb::TrackedKeyInfo", ptr %47, i32 0, i32 2
  %49 = load i32, ptr %48, align 4, !tbaa !32
  %50 = add i32 %49, 1
  store i32 %50, ptr %48, align 4, !tbaa !32
  br label %57

51:                                               ; preds = %40
  %52 = call noundef ptr @_ZNKSt8__detail14_Node_iteratorISt4pairIKNSt7__cxx1112basic_stringIcSt11char_traitsIcESaIcEEEN7rocksdb14TrackedKeyInfoEELb0ELb1EEptEv(ptr noundef nonnull align 8 dereferenceable(8) %8) #16
  %53 = getelementptr inbounds nuw %"struct.std::pair.25", ptr %52, i32 0, i32 1
  %54 = getelementptr inbounds nuw %"struct.rocksdb::TrackedKeyInfo", ptr %53, i32 0, i32 1
  %55 = load i32, ptr %54, align 8, !tbaa !33
  %56 = add i32 %55, 1
  store i32 %56, ptr %54, align 8, !tbaa !33
  br label %57

57:                                               ; preds = %51, %45
  %58 = call noundef ptr @_ZNKSt8__detail14_Node_iteratorISt4pairIKNSt7__cxx1112basic_stringIcSt11char_traitsIcESaIcEEEN7rocksdb14TrackedKeyInfoEELb0ELb1EEptEv(ptr noundef nonnull align 8 dereferenceable(8) %8) #16
  %59 = getelementptr inbounds nuw %"struct.std::pair.25", ptr %58, i32 0, i32 1
  %60 = getelementptr inbounds nuw %"struct.rocksdb::TrackedKeyInfo", ptr %59, i32 0, i32 3
  %61 = load i8, ptr %60, align 8, !tbaa !34, !range !19, !noundef !20
  %62 = trunc i8 %61 to i1
  br i1 %62, label %68, label %63

63:                                               ; preds = %57
  %64 = load ptr, ptr %4, align 8, !tbaa !9
  %65 = getelementptr inbounds nuw %"struct.rocksdb::PointLockRequest", ptr %64, i32 0, i32 5
  %66 = load i8, ptr %65, align 1, !tbaa !35, !range !19, !noundef !20
  %67 = trunc i8 %66 to i1
  br label %68

68:                                               ; preds = %63, %57
  %69 = phi i1 [ true, %57 ], [ %67, %63 ]
  %70 = call noundef ptr @_ZNKSt8__detail14_Node_iteratorISt4pairIKNSt7__cxx1112basic_stringIcSt11char_traitsIcESaIcEEEN7rocksdb14TrackedKeyInfoEELb0ELb1EEptEv(ptr noundef nonnull align 8 dereferenceable(8) %8) #16
  %71 = getelementptr inbounds nuw %"struct.std::pair.25", ptr %70, i32 0, i32 1
  %72 = getelementptr inbounds nuw %"struct.rocksdb::TrackedKeyInfo", ptr %71, i32 0, i32 3
  %73 = zext i1 %69 to i8
  store i8 %73, ptr %72, align 8, !tbaa !34
  call void @llvm.lifetime.end.p0(i64 8, ptr %8) #16
  call void @llvm.lifetime.end.p0(i64 16, ptr %6) #16
  call void @llvm.lifetime.end.p0(i64 8, ptr %5) #16
  ret void
}