; Function Attrs: mustprogress uwtable
define void @_ZN7rocksdb16PointLockTracker5TrackERKNS_16PointLockRequestE(ptr noundef nonnull align 8 dereferenceable(64) %0, ptr noundef nonnull align 8 dereferenceable(50) %1) unnamed_addr #0 align 2 {
  %3 = getelementptr inbounds nuw i8, ptr %0, i64 8
  %4 = tail call noundef nonnull align 8 dereferenceable(56) ptr @_ZNSt8__detail9_Map_baseIjSt4pairIKjSt13unordered_mapINSt7__cxx1112basic_stringIcSt11char_traitsIcESaIcEEEN7rocksdb14TrackedKeyInfoESt4hashIS9_ESt8equal_toIS9_ESaIS1_IKS9_SB_EEEESaISK_ENS_10_Select1stESE_IjESC_IjENS_18_Mod_range_hashingENS_20_Default_ranged_hashENS_20_Prime_rehash_policyENS_17_Hashtable_traitsILb0ELb0ELb1EEELb1EEixERS2_(ptr noundef nonnull align 8 dereferenceable(56) %3, ptr noundef nonnull align 4 dereferenceable(4) %1)
  %5 = getelementptr inbounds nuw i8, ptr %1, i64 8
  %6 = getelementptr inbounds nuw i8, ptr %1, i64 40
  %7 = tail call { ptr, i8 } @_ZNSt8__detail12_Insert_baseINSt7__cxx1112basic_stringIcSt11char_traitsIcESaIcEEESt4pairIKS6_N7rocksdb14TrackedKeyInfoEESaISB_ENS_10_Select1stESt8equal_toIS6_ESt4hashIS6_ENS_18_Mod_range_hashingENS_20_Default_ranged_hashENS_20_Prime_rehash_policyENS_17_Hashtable_traitsILb1ELb0ELb1EEEE11try_emplaceIRS8_JRKmEEES7_INS_14_Node_iteratorISB_Lb0ELb1EEEbENS_20_Node_const_iteratorISB_Lb0ELb1EEEOT_DpOT0_(ptr noundef nonnull align 8 dereferenceable(56) %4, ptr null, ptr noundef nonnull align 8 dereferenceable(32) %5, ptr noundef nonnull align 8 dereferenceable(8) %6)
  %.fca.0.extract = extractvalue { ptr, i8 } %7, 0
  %.fca.1.extract = extractvalue { ptr, i8 } %7, 1
  %8 = trunc i8 %.fca.1.extract to i1
  br i1 %8, label %15, label %9

9:                                                ; preds = %2
  %10 = load i64, ptr %6, align 8, !tbaa !4
  %11 = getelementptr inbounds nuw i8, ptr %.fca.0.extract, i64 40
  %12 = load i64, ptr %11, align 8, !tbaa !15
  %13 = icmp ult i64 %10, %12
  br i1 %13, label %14, label %15

14:                                               ; preds = %9
  store i64 %10, ptr %11, align 8, !tbaa !15
  br label %15

15:                                               ; preds = %14, %9, %2
  %16 = getelementptr inbounds nuw i8, ptr %1, i64 48
  %17 = load i8, ptr %16, align 8, !tbaa !18, !range !19, !noundef !20
  %18 = trunc nuw i8 %17 to i1
  br i1 %18, label %19, label %23

19:                                               ; preds = %15
  %20 = getelementptr inbounds nuw i8, ptr %.fca.0.extract, i64 52
  %21 = load i32, ptr %20, align 4, !tbaa !21
  %22 = add i32 %21, 1
  store i32 %22, ptr %20, align 4, !tbaa !21
  br label %27

23:                                               ; preds = %15
  %24 = getelementptr inbounds nuw i8, ptr %.fca.0.extract, i64 48
  %25 = load i32, ptr %24, align 8, !tbaa !22
  %26 = add i32 %25, 1
  store i32 %26, ptr %24, align 8, !tbaa !22
  br label %27

27:                                               ; preds = %23, %19
  %28 = getelementptr inbounds nuw i8, ptr %.fca.0.extract, i64 56
  %29 = load i8, ptr %28, align 8, !tbaa !23, !range !19, !noundef !20
  %30 = trunc nuw i8 %29 to i1
  %31 = getelementptr inbounds nuw i8, ptr %1, i64 49
  %32 = load i8, ptr %31, align 1, !range !19
  %33 = select i1 %30, i8 1, i8 %32
  store i8 %33, ptr %28, align 8, !tbaa !23
  ret void
}